target datalayout = "e-m:e-p270:32:32-p271:32:32-p272:64:64-i64:64-i128:128-f80:128-n8:16:32:64-S128"
target triple = "x86_64-pc-linux-gnu"

%struct.H5VL_connector_t = type { ptr, i64, ptr, ptr }
%struct.H5VL_connector_prop_t = type { ptr, ptr }

@.str = private unnamed_addr constant [106 x i8] c"generated/home/dtcxzyw/WorkSpace/Projects/compilers/llvm-opt-benchmark/bench/hdf5/hdf5/src/H5VLcallback.c\00", align 1
@H5E_ARGS_g = external global i64, align 8
@H5E_BADTYPE_g = external global i64, align 8
@H5E_VOL_g = external global i64, align 8
@H5E_CANTGET_g = external global i64, align 8
@H5E_CANTCREATE_g = external global i64, align 8
@__func__.H5VLfile_create = private unnamed_addr constant [16 x i8] c"H5VLfile_create\00", align 1
@.str.84 = private unnamed_addr constant [32 x i8] c"not a file access property list\00", align 1
@.str.85 = private unnamed_addr constant [19 x i8] c"vol_connector_info\00", align 1
@H5E_PLIST_g = external global i64, align 8
@.str.86 = private unnamed_addr constant [29 x i8] c"can't get VOL connector info\00", align 1
@.str.87 = private unnamed_addr constant [22 x i8] c"unable to create file\00", align 1

; Function Attrs: nounwind uwtable
define ptr @H5VLfile_create(ptr noundef %0, i32 noundef %1, i64 noundef %2, i64 noundef %3, i64 noundef %4, ptr noundef %5) #0 {
  %7 = alloca ptr, align 8
  %8 = alloca i32, align 4
  %9 = alloca i64, align 8
  %10 = alloca i64, align 8
  %11 = alloca i64, align 8
  %12 = alloca ptr, align 8
  %13 = alloca ptr, align 8
  %14 = alloca %struct.H5VL_connector_prop_t, align 8
  %15 = alloca ptr, align 8
  %16 = alloca i8, align 1
  store ptr %0, ptr %7, align 8, !tbaa !50
  store i32 %1, ptr %8, align 4, !tbaa !7
  store i64 %2, ptr %9, align 8, !tbaa !3
  store i64 %3, ptr %10, align 8, !tbaa !3
  store i64 %4, ptr %11, align 8, !tbaa !3
  store ptr %5, ptr %12, align 8, !tbaa !42
  call void @llvm.lifetime.start.p0(i64 8, ptr %13) #8
  call void @llvm.lifetime.start.p0(i64 16, ptr %14) #8
  call void @llvm.lifetime.start.p0(i64 8, ptr %15) #8
  store ptr null, ptr %15, align 8, !tbaa !42
  call void @llvm.lifetime.start.p0(i64 1, ptr %16) #8
  store i8 0, ptr %16, align 1, !tbaa !9
  %17 = load i64, ptr %10, align 8, !tbaa !3
  %18 = call ptr @H5I_object(i64 noundef %17)
  store ptr %18, ptr %13, align 8, !tbaa !110
  %19 = icmp eq ptr null, %18
  br i1 %19, label %20, label %39

20:                                               ; preds = %6
  br label %21

21:                                               ; preds = %20
  br label %22

22:                                               ; preds = %21
  br label %23

23:                                               ; preds = %22
  %24 = load i64, ptr @H5E_ARGS_g, align 8, !tbaa !3
  %25 = load i64, ptr @H5E_BADTYPE_g, align 8, !tbaa !3
  %26 = call i32 (ptr, ptr, i32, i64, i64, ptr, ...) @H5E_printf_stack(ptr noundef @.str, ptr noundef @__func__.H5VLfile_create, i32 noundef 3675, i64 noundef %24, i64 noundef %25, ptr noundef @.str.84)
  br label %27

27:                                               ; preds = %23
  br label %28

28:                                               ; preds = %27
  store i8 1, ptr %16, align 1, !tbaa !9
  %29 = load i8, ptr %16, align 1, !tbaa !9, !range !14, !noundef !15
  %30 = trunc i8 %29 to i1
  %31 = zext i1 %30 to i8
  store i8 %31, ptr %16, align 1, !tbaa !9
  br label %32

32:                                               ; preds = %28
  br label %33

33:                                               ; preds = %32
  br label %34

34:                                               ; preds = %33
  store ptr null, ptr %15, align 8, !tbaa !42
  br label %95

35:                                               ; No predecessors!
  br label %36

36:                                               ; preds = %35
  br label %37

37:                                               ; preds = %36
  br label %38

38:                                               ; preds = %37
  br label %39

39:                                               ; preds = %38, %6
  %40 = load ptr, ptr %13, align 8, !tbaa !110
  %41 = call i32 @H5P_peek(ptr noundef %40, ptr noundef @.str.85, ptr noundef %14)
  %42 = icmp slt i32 %41, 0
  br i1 %42, label %43, label %62

43:                                               ; preds = %39
  br label %44

44:                                               ; preds = %43
  br label %45

45:                                               ; preds = %44
  br label %46

46:                                               ; preds = %45
  %47 = load i64, ptr @H5E_PLIST_g, align 8, !tbaa !3
  %48 = load i64, ptr @H5E_CANTGET_g, align 8, !tbaa !3
  %49 = call i32 (ptr, ptr, i32, i64, i64, ptr, ...) @H5E_printf_stack(ptr noundef @.str, ptr noundef @__func__.H5VLfile_create, i32 noundef 3677, i64 noundef %47, i64 noundef %48, ptr noundef @.str.86)
  br label %50

50:                                               ; preds = %46
  br label %51

51:                                               ; preds = %50
  store i8 1, ptr %16, align 1, !tbaa !9
  %52 = load i8, ptr %16, align 1, !tbaa !9, !range !14, !noundef !15
  %53 = trunc i8 %52 to i1
  %54 = zext i1 %53 to i8
  store i8 %54, ptr %16, align 1, !tbaa !9
  br label %55

55:                                               ; preds = %51
  br label %56

56:                                               ; preds = %55
  br label %57

57:                                               ; preds = %56
  store ptr null, ptr %15, align 8, !tbaa !42
  br label %95

58:                                               ; No predecessors!
  br label %59

59:                                               ; preds = %58
  br label %60

60:                                               ; preds = %59
  br label %61

61:                                               ; preds = %60
  br label %62

62:                                               ; preds = %61, %39
  %63 = getelementptr inbounds nuw %struct.H5VL_connector_prop_t, ptr %14, i32 0, i32 0
  %64 = load ptr, ptr %63, align 8, !tbaa !112
  %65 = getelementptr inbounds nuw %struct.H5VL_connector_t, ptr %64, i32 0, i32 0
  %66 = load ptr, ptr %65, align 8, !tbaa !16
  %67 = load ptr, ptr %7, align 8, !tbaa !50
  %68 = load i32, ptr %8, align 4, !tbaa !7
  %69 = load i64, ptr %9, align 8, !tbaa !3
  %70 = load i64, ptr %10, align 8, !tbaa !3
  %71 = load i64, ptr %11, align 8, !tbaa !3
  %72 = load ptr, ptr %12, align 8, !tbaa !42
  %73 = call ptr @H5VL__file_create(ptr noundef %66, ptr noundef %67, i32 noundef %68, i64 noundef %69, i64 noundef %70, i64 noundef %71, ptr noundef %72)
  store ptr %73, ptr %15, align 8, !tbaa !42
  %74 = icmp eq ptr null, %73
  br i1 %74, label %75, label %94

75:                                               ; preds = %62
  br label %76

76:                                               ; preds = %75
  br label %77

77:                                               ; preds = %76
  br label %78

78:                                               ; preds = %77
  %79 = load i64, ptr @H5E_VOL_g, align 8, !tbaa !3
  %80 = load i64, ptr @H5E_CANTCREATE_g, align 8, !tbaa !3
  %81 = call i32 (ptr, ptr, i32, i64, i64, ptr, ...) @H5E_printf_stack(ptr noundef @.str, ptr noundef @__func__.H5VLfile_create, i32 noundef 3682, i64 noundef %79, i64 noundef %80, ptr noundef @.str.87)
  br label %82

82:                                               ; preds = %78
  br label %83

83:                                               ; preds = %82
  store i8 1, ptr %16, align 1, !tbaa !9
  %84 = load i8, ptr %16, align 1, !tbaa !9, !range !14, !noundef !15
  %85 = trunc i8 %84 to i1
  %86 = zext i1 %85 to i8
  store i8 %86, ptr %16, align 1, !tbaa !9
  br label %87

87:                                               ; preds = %83
  br label %88

88:                                               ; preds = %87
  br label %89

89:                                               ; preds = %88
  store ptr null, ptr %15, align 8, !tbaa !42
  br label %95

90:                                               ; No predecessors!
  br label %91

91:                                               ; preds = %90
  br label %92

92:                                               ; preds = %91
  br label %93

93:                                               ; preds = %92
  br label %94

94:                                               ; preds = %93, %62
  br label %95

95:                                               ; preds = %94, %89, %57, %34
  %96 = load i8, ptr %16, align 1, !tbaa !9, !range !14, !noundef !15
  %97 = trunc i8 %96 to i1
  %98 = xor i1 %97, true
  %99 = xor i1 %98, true
  %100 = zext i1 %99 to i32
  %101 = sext i32 %100 to i64
  %102 = call i64 @llvm.expect.i64(i64 %101, i64 0)
  %103 = icmp ne i64 %102, 0
  br i1 %103, label %104, label %106

104:                                              ; preds = %95
  %105 = call i32 @H5E_dump_api_stack()
  br label %106

106:                                              ; preds = %104, %95
  %107 = load ptr, ptr %15, align 8, !tbaa !42
  call void @llvm.lifetime.end.p0(i64 1, ptr %16) #8
  call void @llvm.lifetime.end.p0(i64 8, ptr %15) #8
  call void @llvm.lifetime.end.p0(i64 16, ptr %14) #8
  call void @llvm.lifetime.end.p0(i64 8, ptr %13) #8
  ret ptr %107
}