; Function Attrs: nounwind uwtable
define ptr @H5VLfile_create(ptr noundef %0, i32 noundef %1, i64 noundef %2, i64 noundef %3, i64 noundef %4, ptr noundef %5) local_unnamed_addr #0 {
  %7 = alloca %struct.H5VL_connector_prop_t, align 8
  call void @llvm.lifetime.start.p0(i64 16, ptr nonnull %7) #7
  %8 = tail call ptr @H5I_object(i64 noundef %3) #7
  %9 = icmp eq ptr %8, null
  br i1 %9, label %10, label %14, !prof !41

10:                                               ; preds = %6
  %11 = load i64, ptr @H5E_ARGS_g, align 8, !tbaa !3
  %12 = load i64, ptr @H5E_BADTYPE_g, align 8, !tbaa !3
  %13 = tail call i32 (ptr, ptr, i32, i64, i64, ptr, ...) @H5E_printf_stack(ptr noundef nonnull @.str, ptr noundef nonnull @__func__.H5VLfile_create, i32 noundef 3675, i64 noundef %11, i64 noundef %12, ptr noundef nonnull @.str.84) #7
  br label %30

14:                                               ; preds = %6
  %15 = call i32 @H5P_peek(ptr noundef nonnull %8, ptr noundef nonnull @.str.85, ptr noundef nonnull %7) #7
  %16 = icmp slt i32 %15, 0
  br i1 %16, label %17, label %21, !prof !41

17:                                               ; preds = %14
  %18 = load i64, ptr @H5E_PLIST_g, align 8, !tbaa !3
  %19 = load i64, ptr @H5E_CANTGET_g, align 8, !tbaa !3
  %20 = call i32 (ptr, ptr, i32, i64, i64, ptr, ...) @H5E_printf_stack(ptr noundef nonnull @.str, ptr noundef nonnull @__func__.H5VLfile_create, i32 noundef 3677, i64 noundef %18, i64 noundef %19, ptr noundef nonnull @.str.86) #7
  br label %30

21:                                               ; preds = %14
  %22 = load ptr, ptr %7, align 8, !tbaa !88
  %23 = load ptr, ptr %22, align 8, !tbaa !7
  %24 = call fastcc ptr @H5VL__file_create(ptr noundef %23, ptr noundef %0, i32 noundef %1, i64 noundef %2, i64 noundef %3, i64 noundef %4, ptr noundef %5)
  %25 = icmp eq ptr %24, null
  br i1 %25, label %26, label %32, !prof !41

26:                                               ; preds = %21
  %27 = load i64, ptr @H5E_VOL_g, align 8, !tbaa !3
  %28 = load i64, ptr @H5E_CANTCREATE_g, align 8, !tbaa !3
  %29 = call i32 (ptr, ptr, i32, i64, i64, ptr, ...) @H5E_printf_stack(ptr noundef nonnull @.str, ptr noundef nonnull @__func__.H5VLfile_create, i32 noundef 3682, i64 noundef %27, i64 noundef %28, ptr noundef nonnull @.str.87) #7
  br label %30

30:                                               ; preds = %10, %17, %26
  %31 = call i32 @H5E_dump_api_stack() #7
  br label %32

32:                                               ; preds = %21, %30
  %.01217 = phi ptr [ null, %30 ], [ %24, %21 ]
  call void @llvm.lifetime.end.p0(i64 16, ptr nonnull %7) #7
  ret ptr %.01217
}